; Function Attrs: mustprogress uwtable
define void @_ZN3zmq13socket_base_t21event_connect_delayedERKNS_19endpoint_uri_pair_tEi(ptr noundef nonnull align 8 dereferenceable(1825) %0, ptr noundef nonnull readonly align 8 captures(none) dereferenceable(68) %1, i32 noundef %2) local_unnamed_addr #0 align 2 {
  %4 = alloca [1 x i64], align 8
  call void @llvm.lifetime.start.p0(i64 8, ptr nonnull %4) #36
  %5 = sext i32 %2 to i64
  store i64 %5, ptr %4, align 8, !tbaa !11
  call void @_ZN3zmq13socket_base_t5eventERKNS_19endpoint_uri_pair_tEPmmm(ptr noundef nonnull align 8 dereferenceable(1825) %0, ptr noundef nonnull align 8 dereferenceable(68) %1, ptr noundef nonnull %4, i64 noundef 1, i64 noundef 2)
  call void @llvm.lifetime.end.p0(i64 8, ptr nonnull %4) #36
  ret void
}